; Function Attrs: mustprogress uwtable
define hidden void @_Z13luaM_freegco_P9lua_StateP8GCObjectmhP8lua_Page(ptr noundef readonly captures(none) %0, ptr noundef %1, i64 noundef %2, i8 noundef zeroext %3, ptr noundef %4) local_unnamed_addr #3 {
  %6 = getelementptr inbounds nuw i8, ptr %0, i64 24
  %7 = load ptr, ptr %6, align 8, !tbaa !4
  %8 = add i64 %2, -1
  %9 = icmp ult i64 %8, 1024
  br i1 %9, label %10, label %.thread

10:                                               ; preds = %5
  %11 = getelementptr inbounds nuw [1025 x i8], ptr getelementptr inbounds nuw (i8, ptr @_ZL16kSizeClassConfig, i64 160), i64 0, i64 %2
  %12 = load i8, ptr %11, align 1, !tbaa !19
  %13 = sext i8 %12 to i32
  %14 = icmp sgt i8 %12, -1
  br i1 %14, label %15, label %.thread

15:                                               ; preds = %10
  store i8 0, ptr %1, align 8, !tbaa !19
  %16 = load ptr, ptr %6, align 8, !tbaa !4
  %17 = getelementptr inbounds nuw i8, ptr %4, i64 40
  %18 = load ptr, ptr %17, align 8, !tbaa !27
  %.not.i = icmp eq ptr %18, null
  br i1 %.not.i, label %19, label %31

19:                                               ; preds = %15
  %20 = getelementptr inbounds nuw i8, ptr %4, i64 48
  %21 = load i32, ptr %20, align 8, !tbaa !22
  %22 = icmp slt i32 %21, 0
  br i1 %22, label %23, label %31

23:                                               ; preds = %19
  %24 = getelementptr inbounds nuw i8, ptr %16, i64 416
  %25 = zext nneg i32 %13 to i64
  %26 = getelementptr inbounds nuw [40 x ptr], ptr %24, i64 0, i64 %25
  %27 = load ptr, ptr %26, align 8, !tbaa !20
  %28 = getelementptr inbounds nuw i8, ptr %4, i64 8
  store ptr %27, ptr %28, align 8, !tbaa !28
  %.not22.i = icmp eq ptr %27, null
  br i1 %.not22.i, label %30, label %29

29:                                               ; preds = %23
  store ptr %4, ptr %27, align 8, !tbaa !29
  br label %30

30:                                               ; preds = %29, %23
  store ptr %4, ptr %26, align 8, !tbaa !20
  br label %31

31:                                               ; preds = %30, %19, %15
  %32 = getelementptr inbounds nuw i8, ptr %1, i64 8
  store ptr %18, ptr %32, align 8, !tbaa !26
  store ptr %1, ptr %17, align 8, !tbaa !27
  %33 = getelementptr inbounds nuw i8, ptr %4, i64 52
  %34 = load i32, ptr %33, align 4, !tbaa !25
  %35 = add nsw i32 %34, -1
  store i32 %35, ptr %33, align 4, !tbaa !25
  %36 = icmp eq i32 %35, 0
  br i1 %36, label %37, label %_ZL12freegcoblockP9lua_StateiPvP8lua_Page.exit

37:                                               ; preds = %31
  %38 = getelementptr inbounds nuw i8, ptr %16, i64 416
  %39 = getelementptr inbounds nuw i8, ptr %16, i64 744
  %40 = zext nneg i32 %13 to i64
  %41 = getelementptr inbounds nuw i8, ptr %4, i64 8
  %42 = load ptr, ptr %41, align 8, !tbaa !28
  %.not.i.i = icmp eq ptr %42, null
  %.pre.i.i = load ptr, ptr %4, align 8, !tbaa !29
  br i1 %.not.i.i, label %44, label %43

43:                                               ; preds = %37
  store ptr %.pre.i.i, ptr %42, align 8, !tbaa !29
  br label %44

44:                                               ; preds = %43, %37
  %.not15.i.i = icmp eq ptr %.pre.i.i, null
  br i1 %.not15.i.i, label %47, label %45

45:                                               ; preds = %44
  %46 = getelementptr inbounds nuw i8, ptr %.pre.i.i, i64 8
  store ptr %42, ptr %46, align 8, !tbaa !28
  br label %52

47:                                               ; preds = %44
  %48 = getelementptr inbounds nuw ptr, ptr %38, i64 %40
  %49 = load ptr, ptr %48, align 8, !tbaa !20
  %50 = icmp eq ptr %49, %4
  br i1 %50, label %51, label %52

51:                                               ; preds = %47
  store ptr %42, ptr %48, align 8, !tbaa !20
  br label %52

52:                                               ; preds = %51, %47, %45
  %.val.i.i = load ptr, ptr %6, align 8, !tbaa !4
  %53 = getelementptr inbounds nuw i8, ptr %4, i64 24
  %54 = load ptr, ptr %53, align 8, !tbaa !50
  %.not18.i.i.i = icmp eq ptr %54, null
  %.phi.trans.insert.i.i.i = getelementptr inbounds nuw i8, ptr %4, i64 16
  %.pre.i.i.i = load ptr, ptr %.phi.trans.insert.i.i.i, align 8, !tbaa !51
  br i1 %.not18.i.i.i, label %._crit_edge.i.i.i, label %55

55:                                               ; preds = %52
  %56 = getelementptr inbounds nuw i8, ptr %54, i64 16
  store ptr %.pre.i.i.i, ptr %56, align 8, !tbaa !51
  br label %._crit_edge.i.i.i

._crit_edge.i.i.i:                                ; preds = %55, %52
  %.not19.i.i.i = icmp eq ptr %.pre.i.i.i, null
  br i1 %.not19.i.i.i, label %59, label %57

57:                                               ; preds = %._crit_edge.i.i.i
  %58 = getelementptr inbounds nuw i8, ptr %.pre.i.i.i, i64 24
  store ptr %54, ptr %58, align 8, !tbaa !50
  br label %_ZL12freegcoblockP9lua_StateiPvP8lua_Page.exit.sink.split

59:                                               ; preds = %._crit_edge.i.i.i
  %60 = load ptr, ptr %39, align 8, !tbaa !20
  %61 = icmp eq ptr %60, %4
  br i1 %61, label %62, label %_ZL12freegcoblockP9lua_StateiPvP8lua_Page.exit.sink.split

62:                                               ; preds = %59
  store ptr %54, ptr %39, align 8, !tbaa !20
  br label %_ZL12freegcoblockP9lua_StateiPvP8lua_Page.exit.sink.split

.thread:                                          ; preds = %5, %10
  %63 = getelementptr inbounds nuw i8, ptr %7, i64 744
  %64 = getelementptr inbounds nuw i8, ptr %4, i64 24
  %65 = load ptr, ptr %64, align 8, !tbaa !50
  %.not18.i = icmp eq ptr %65, null
  %.phi.trans.insert.i = getelementptr inbounds nuw i8, ptr %4, i64 16
  %.pre.i = load ptr, ptr %.phi.trans.insert.i, align 8, !tbaa !51
  br i1 %.not18.i, label %._crit_edge.i, label %66

66:                                               ; preds = %.thread
  %67 = getelementptr inbounds nuw i8, ptr %65, i64 16
  store ptr %.pre.i, ptr %67, align 8, !tbaa !51
  br label %._crit_edge.i

._crit_edge.i:                                    ; preds = %66, %.thread
  %.not19.i = icmp eq ptr %.pre.i, null
  br i1 %.not19.i, label %70, label %68

68:                                               ; preds = %._crit_edge.i
  %69 = getelementptr inbounds nuw i8, ptr %.pre.i, i64 24
  store ptr %65, ptr %69, align 8, !tbaa !50
  br label %_ZL12freegcoblockP9lua_StateiPvP8lua_Page.exit.sink.split

70:                                               ; preds = %._crit_edge.i
  %71 = load ptr, ptr %63, align 8, !tbaa !20
  %72 = icmp eq ptr %71, %4
  br i1 %72, label %73, label %_ZL12freegcoblockP9lua_StateiPvP8lua_Page.exit.sink.split

73:                                               ; preds = %70
  store ptr %65, ptr %63, align 8, !tbaa !20
  br label %_ZL12freegcoblockP9lua_StateiPvP8lua_Page.exit.sink.split

_ZL12freegcoblockP9lua_StateiPvP8lua_Page.exit.sink.split: ; preds = %73, %70, %68, %57, %59, %62
  %.val.i.i.sink22 = phi ptr [ %.val.i.i, %62 ], [ %.val.i.i, %59 ], [ %.val.i.i, %57 ], [ %7, %68 ], [ %7, %70 ], [ %7, %73 ]
  %74 = getelementptr inbounds nuw i8, ptr %.val.i.i.sink22, i64 16
  %75 = load ptr, ptr %74, align 8, !tbaa !30
  %76 = getelementptr inbounds nuw i8, ptr %.val.i.i.sink22, i64 24
  %77 = load ptr, ptr %76, align 8, !tbaa !44
  %78 = getelementptr inbounds nuw i8, ptr %4, i64 32
  %79 = load i32, ptr %78, align 8, !tbaa !49
  %80 = sext i32 %79 to i64
  %81 = tail call noundef ptr %75(ptr noundef %77, ptr noundef nonnull %4, i64 noundef %80, i64 noundef 0)
  br label %_ZL12freegcoblockP9lua_StateiPvP8lua_Page.exit

_ZL12freegcoblockP9lua_StateiPvP8lua_Page.exit:   ; preds = %_ZL12freegcoblockP9lua_StateiPvP8lua_Page.exit.sink.split, %31
  %82 = getelementptr inbounds nuw i8, ptr %7, i64 72
  %83 = load i64, ptr %82, align 8, !tbaa !45
  %84 = sub i64 %83, %2
  store i64 %84, ptr %82, align 8, !tbaa !45
  %85 = getelementptr inbounds nuw i8, ptr %7, i64 760
  %86 = zext i8 %3 to i64
  %87 = getelementptr inbounds nuw [256 x i64], ptr %85, i64 0, i64 %86
  %88 = load i64, ptr %87, align 8, !tbaa !46
  %89 = sub i64 %88, %2
  store i64 %89, ptr %87, align 8, !tbaa !46
  ret void
}